target datalayout = "e-m:e-p270:32:32-p271:32:32-p272:64:64-i64:64-i128:128-f80:128-n8:16:32:64-S128"
target triple = "x86_64-pc-linux-gnu"

%struct._zend_executor_globals = type { %struct._zval_struct, %struct._zval_struct, [32 x ptr], ptr, ptr, %struct._zend_array, %struct._zend_array, ptr, i32, i32, ptr, ptr, ptr, ptr, ptr, ptr, i64, ptr, ptr, i32, i32, i64, i32, i32, i32, i8, i8, %struct.zend_atomic_bool_s, %struct.zend_atomic_bool_s, ptr, i64, ptr, ptr, %struct._zend_array, %struct._zend_array, i32, i8, %struct._zval_struct, %struct._zval_struct, %struct._zend_stack, %struct._zend_stack, %struct._zend_stack, ptr, i32, i32, i64, ptr, ptr, ptr, %struct._zend_objects_store, ptr, ptr, ptr, [3 x %struct._zend_op], ptr, i8, i8, i64, i32, i32, ptr, [16 x %struct._HashTableIterator], ptr, %union._zend_function, %struct._zend_op, %struct._zend_array, i64, %struct.zend_get_gc_buffer, ptr, ptr, ptr, i64, i8, i32, ptr, ptr, i64, %struct._zend_call_stack, i64, i64, [6 x ptr] }
%struct.zend_atomic_bool_s = type { i8 }
%struct._zval_struct = type { %union._zend_value, %union.anon, %union.anon.2 }
%union._zend_value = type { i64 }
%union.anon = type { i32 }
%union.anon.2 = type { i32 }
%struct._zend_stack = type { i32, i32, i32, ptr }
%struct._zend_objects_store = type { ptr, i32, i32, i32 }
%struct._HashTableIterator = type { ptr, i32, i32 }
%union._zend_function = type { %struct._zend_op_array }
%struct._zend_op_array = type { i8, [3 x i8], i32, ptr, ptr, ptr, i32, i32, ptr, ptr, ptr, ptr, i32, i32, i32, i32, ptr, ptr, ptr, ptr, ptr, i32, i32, ptr, ptr, ptr, i32, i32, i32, i32, ptr, ptr, [6 x ptr] }
%struct._zend_op = type { ptr, %union._znode_op, %union._znode_op, %union._znode_op, i32, i32, i8, i8, i8, i8 }
%union._znode_op = type { i32 }
%struct._zend_array = type { %struct._zend_refcounted_h, %union.anon.4, i32, %union.anon.6, i32, i32, i32, i32, i64, ptr }
%struct._zend_refcounted_h = type { i32, %union.anon.3 }
%union.anon.3 = type { i32 }
%union.anon.4 = type { i32 }
%union.anon.6 = type { ptr }
%struct.zend_get_gc_buffer = type { ptr, ptr, ptr }
%struct._zend_call_stack = type { ptr, i64 }
%struct._zend_execute_data = type { ptr, ptr, ptr, ptr, %struct._zval_struct, ptr, ptr, ptr, ptr }
%struct._ze_xmlwriter_object = type { ptr, ptr, %struct._zend_object }
%struct._zend_object = type { %struct._zend_refcounted_h, i32, ptr, ptr, ptr, [1 x %struct._zval_struct] }

@xmlwriter_class_entry_ce = internal global ptr null, align 8
@executor_globals = external global %struct._zend_executor_globals, align 8
@.str.4 = private unnamed_addr constant [42 x i8] c"Invalid or uninitialized XMLWriter object\00", align 1
@.str.5 = private unnamed_addr constant [15 x i8] c"attribute name\00", align 1
@.str.7 = private unnamed_addr constant [31 x i8] c"must be a valid %s, \22%s\22 given\00", align 1
@.str.8 = private unnamed_addr constant [4 x i8] c"Oss\00", align 1

; Function Attrs: nounwind uwtable
define internal ptr @php_xmlwriter_fetch_object(ptr noundef %0) #0 {
  %2 = alloca ptr, align 8
  store ptr %0, ptr %2, align 8
  %3 = load ptr, ptr %2, align 8
  %4 = getelementptr inbounds i8, ptr %3, i64 -16
  ret ptr %4
}

; Function Attrs: nounwind uwtable
define hidden void @zif_xmlwriter_write_attribute(ptr noundef %0, ptr noundef %1) #0 {
  %3 = alloca ptr, align 8
  %4 = alloca ptr, align 8
  %5 = alloca ptr, align 8
  %6 = alloca ptr, align 8
  %7 = alloca ptr, align 8
  %8 = alloca ptr, align 8
  %9 = alloca i64, align 8
  %10 = alloca i64, align 8
  %11 = alloca i32, align 4
  %12 = alloca ptr, align 8
  %13 = alloca ptr, align 8
  store ptr %0, ptr %4, align 8
  store ptr %1, ptr %5, align 8
  %14 = load ptr, ptr %4, align 8
  %15 = getelementptr inbounds %struct._zend_execute_data, ptr %14, i32 0, i32 4
  %16 = getelementptr inbounds %struct._zval_struct, ptr %15, i32 0, i32 2
  %17 = load i32, ptr %16, align 4
  %18 = load ptr, ptr %4, align 8
  %19 = getelementptr inbounds %struct._zend_execute_data, ptr %18, i32 0, i32 4
  store ptr %19, ptr %3, align 8
  %20 = load ptr, ptr %3, align 8
  %21 = getelementptr inbounds %struct._zval_struct, ptr %20, i32 0, i32 1
  %22 = load i8, ptr %21, align 8
  %23 = zext i8 %22 to i32
  %24 = icmp eq i32 %23, 8
  br i1 %24, label %25, label %28

25:                                               ; preds = %2
  %26 = load ptr, ptr %4, align 8
  %27 = getelementptr inbounds %struct._zend_execute_data, ptr %26, i32 0, i32 4
  br label %29

28:                                               ; preds = %2
  br label %29

29:                                               ; preds = %28, %25
  %30 = phi ptr [ %27, %25 ], [ null, %28 ]
  %31 = load ptr, ptr @xmlwriter_class_entry_ce, align 8
  %32 = call i32 (i32, ptr, ptr, ...) @zend_parse_method_parameters(i32 noundef %17, ptr noundef %30, ptr noundef @.str.8, ptr noundef %12, ptr noundef %31, ptr noundef %7, ptr noundef %9, ptr noundef %8, ptr noundef %10)
  %33 = icmp eq i32 %32, -1
  br i1 %33, label %34, label %39

34:                                               ; preds = %29
  br label %35

35:                                               ; preds = %34
  %36 = load ptr, ptr getelementptr inbounds (%struct._zend_executor_globals, ptr @executor_globals, i32 0, i32 50), align 8
  %37 = icmp ne ptr %36, null
  call void @llvm.assume(i1 %37)
  br label %77

38:                                               ; No predecessors!
  br label %39

39:                                               ; preds = %38, %29
  %40 = load ptr, ptr %12, align 8
  %41 = getelementptr inbounds %struct._zval_struct, ptr %40, i32 0, i32 0
  %42 = load ptr, ptr %41, align 8
  %43 = call ptr @php_xmlwriter_fetch_object(ptr noundef %42)
  store ptr %43, ptr %13, align 8
  %44 = load ptr, ptr %13, align 8
  %45 = getelementptr inbounds %struct._ze_xmlwriter_object, ptr %44, i32 0, i32 0
  %46 = load ptr, ptr %45, align 8
  store ptr %46, ptr %6, align 8
  %47 = load ptr, ptr %6, align 8
  %48 = icmp ne ptr %47, null
  br i1 %48, label %54, label %49

49:                                               ; preds = %39
  call void (ptr, ptr, ...) @zend_throw_error(ptr noundef null, ptr noundef @.str.4)
  br label %50

50:                                               ; preds = %49
  %51 = load ptr, ptr getelementptr inbounds (%struct._zend_executor_globals, ptr @executor_globals, i32 0, i32 50), align 8
  %52 = icmp ne ptr %51, null
  call void @llvm.assume(i1 %52)
  br label %77

53:                                               ; No predecessors!
  br label %54

54:                                               ; preds = %53, %39
  %55 = load ptr, ptr %7, align 8
  %56 = call i32 @xmlValidateName(ptr noundef %55, i32 noundef 0)
  %57 = icmp ne i32 %56, 0
  br i1 %57, label %58, label %64

58:                                               ; preds = %54
  %59 = load ptr, ptr %7, align 8
  call void (i32, ptr, ...) @zend_argument_value_error(i32 noundef 2, ptr noundef @.str.7, ptr noundef @.str.5, ptr noundef %59)
  br label %60

60:                                               ; preds = %58
  %61 = load ptr, ptr getelementptr inbounds (%struct._zend_executor_globals, ptr @executor_globals, i32 0, i32 50), align 8
  %62 = icmp ne ptr %61, null
  call void @llvm.assume(i1 %62)
  br label %77

63:                                               ; No predecessors!
  br label %64

64:                                               ; preds = %63, %54
  %65 = load ptr, ptr %6, align 8
  %66 = load ptr, ptr %7, align 8
  %67 = load ptr, ptr %8, align 8
  %68 = call i32 @xmlTextWriterWriteAttribute(ptr noundef %65, ptr noundef %66, ptr noundef %67)
  store i32 %68, ptr %11, align 4
  br label %69

69:                                               ; preds = %64
  br label %70

70:                                               ; preds = %69
  %71 = load i32, ptr %11, align 4
  %72 = icmp ne i32 %71, -1
  %73 = select i1 %72, i32 3, i32 2
  %74 = load ptr, ptr %5, align 8
  %75 = getelementptr inbounds %struct._zval_struct, ptr %74, i32 0, i32 1
  store i32 %73, ptr %75, align 8
  br label %76

76:                                               ; preds = %70
  br label %77

77:                                               ; preds = %76, %60, %50, %35
  ret void
}